; Function Attrs: nounwind uwtable
define dso_local void @int_add64(ptr dead_on_unwind noalias writable writeonly sret(%struct.Int) align 8 captures(none) initializes((0, 20)) %0, ptr noundef readonly byval(%struct.Int) align 8 captures(none) %1, i64 noundef %2) local_unnamed_addr #0 {
  %4 = load i64, ptr %1, align 8
  %5 = getelementptr inbounds nuw i8, ptr %1, i64 8
  %6 = load i64, ptr %5, align 8
  %7 = add i64 %6, %2
  %8 = icmp ult i64 %7, %6
  %9 = zext i1 %8 to i64
  %10 = add i64 %4, %9
  %11 = getelementptr inbounds nuw i8, ptr %1, i64 16
  %12 = load i32, ptr %11, align 8
  %13 = tail call { i64, i64 } @i128_extend(i64 %10, i64 %7, i32 noundef %12)
  %14 = extractvalue { i64, i64 } %13, 0
  store i64 %14, ptr %0, align 8
  %15 = getelementptr inbounds nuw i8, ptr %0, i64 8
  %16 = extractvalue { i64, i64 } %13, 1
  store i64 %16, ptr %15, align 8
  %17 = getelementptr inbounds nuw i8, ptr %0, i64 16
  store i32 %12, ptr %17, align 8
  ret void
}